; Function Attrs: mustprogress sspstrong uwtable
define noundef zeroext i1 @_ZN4FLAC8Metadata8get_tagsEPKcRPNS0_13VorbisCommentE(ptr noundef %filename, ptr nocapture noundef nonnull writeonly align 8 dereferenceable(8) %tags) local_unnamed_addr #0 personality ptr @__gxx_personality_v0 {
entry:
  %object = alloca ptr, align 8
  store ptr null, ptr %tags, align 8
  %call = call i32 @FLAC__metadata_get_tags(ptr noundef %filename, ptr noundef nonnull %object)
  %tobool.not = icmp ne i32 %call, 0
  br i1 %tobool.not, label %invoke.cont, label %return

invoke.cont:                                      ; preds = %entry
  %call1 = call noalias noundef nonnull dereferenceable(24) ptr @_Znwm(i64 noundef 24) #19
  %0 = load ptr, ptr %object, align 8
  %object_.i.i = getelementptr inbounds i8, ptr %call1, i64 8
  store ptr %0, ptr %object_.i.i, align 8
  %is_reference_.i.i = getelementptr inbounds i8, ptr %call1, i64 16
  store i8 0, ptr %is_reference_.i.i, align 8
  store ptr getelementptr inbounds ({ [5 x ptr] }, ptr @_ZTVN4FLAC8Metadata13VorbisCommentE, i64 0, i32 0, i64 2), ptr %call1, align 8
  store ptr %call1, ptr %tags, align 8
  br label %return

return:                                           ; preds = %entry, %invoke.cont
  ret i1 %tobool.not
}